; ModuleID = 'source-C-CXX/41/1250.c'
source_filename = "source-C-CXX/41/1250.c"
target datalayout = "e-m:e-p270:32:32-p271:32:32-p272:64:64-i64:64-f80:128-n8:16:32:64-S128"
target triple = "x86_64-pc-linux-gnu"

%struct._IO_FILE = type { i32, i8*, i8*, i8*, i8*, i8*, i8*, i8*, i8*, i8*, i8*, i8*, %struct._IO_marker*, %struct._IO_FILE*, i32, i32, i64, i16, i8, [1 x i8], i8*, i64, %struct._IO_codecvt*, %struct._IO_wide_data*, %struct._IO_FILE*, i8*, i64, i32, [20 x i8] }
%struct._IO_marker = type opaque
%struct._IO_codecvt = type opaque
%struct._IO_wide_data = type opaque

@.str = private unnamed_addr constant [3 x i8] c"%d\00", align 1
@.str.1 = private unnamed_addr constant [4 x i8] c"%d \00", align 1
@.str.2 = private unnamed_addr constant [4 x i8] c"%d\0A\00", align 1
@stdin = external local_unnamed_addr global %struct._IO_FILE*, align 8

; Function Attrs: nofree nounwind sspstrong uwtable
define dso_local i32 @main() local_unnamed_addr #0 {
  %1 = alloca i32, align 4
  %2 = alloca i32, align 4
  %3 = bitcast i32* %1 to i8*
  call void @llvm.lifetime.start.p0i8(i64 4, i8* nonnull %3) #4
  %4 = bitcast i32* %2 to i8*
  call void @llvm.lifetime.start.p0i8(i64 4, i8* nonnull %4) #4
  %5 = call i32 (i8*, ...) @__isoc99_scanf(i8* getelementptr inbounds ([3 x i8], [3 x i8]* @.str, i64 0, i64 0), i32* nonnull %1)
  %6 = load i32, i32* %1, align 4, !tbaa !5
  %7 = zext i32 %6 to i64
  %8 = call i8* @llvm.stacksave()
  %9 = alloca i32, i64 %7, align 16
  %10 = load i32, i32* %1, align 4, !tbaa !5
  %11 = icmp sgt i32 %10, 0
  br i1 %11, label %12, label %20

12:                                               ; preds = %0, %12
  %13 = phi i64 [ %16, %12 ], [ 0, %0 ]
  %14 = getelementptr inbounds i32, i32* %9, i64 %13
  %15 = call i32 (i8*, ...) @__isoc99_scanf(i8* getelementptr inbounds ([3 x i8], [3 x i8]* @.str, i64 0, i64 0), i32* nonnull %14)
  %16 = add nuw nsw i64 %13, 1
  %17 = load i32, i32* %1, align 4, !tbaa !5
  %18 = sext i32 %17 to i64
  %19 = icmp slt i64 %16, %18
  br i1 %19, label %12, label %20, !llvm.loop !9

20:                                               ; preds = %12, %0
  %21 = call i32 (i8*, ...) @__isoc99_scanf(i8* getelementptr inbounds ([3 x i8], [3 x i8]* @.str, i64 0, i64 0), i32* nonnull %2)
  %22 = load i32, i32* %2, align 4
  %23 = load i32, i32* %1, align 4, !tbaa !5
  %24 = icmp sgt i32 %23, 0
  br i1 %24, label %31, label %27

25:                                               ; preds = %115
  %26 = icmp sgt i32 %116, 1
  br i1 %26, label %120, label %27

27:                                               ; preds = %20, %25
  %28 = phi i32 [ %116, %25 ], [ %23, %20 ]
  %29 = add nsw i32 %28, -1
  %30 = sext i32 %29 to i64
  br label %130

31:                                               ; preds = %20, %115
  %32 = phi i32 [ %116, %115 ], [ %23, %20 ]
  %33 = phi i32 [ %118, %115 ], [ 0, %20 ]
  %34 = sext i32 %33 to i64
  %35 = getelementptr inbounds i32, i32* %9, i64 %34
  %36 = load i32, i32* %35, align 4, !tbaa !5
  %37 = icmp eq i32 %36, %22
  br i1 %37, label %38, label %115

38:                                               ; preds = %31
  %39 = add nsw i32 %32, -1
  %40 = icmp slt i32 %33, %39
  br i1 %40, label %41, label %113

41:                                               ; preds = %38
  %42 = sext i32 %39 to i64
  %43 = sub nsw i64 %42, %34
  %44 = icmp ult i64 %43, 8
  br i1 %44, label %104, label %45

45:                                               ; preds = %41
  %46 = and i64 %43, -8
  %47 = add nsw i64 %46, %34
  %48 = add nsw i64 %46, -8
  %49 = lshr exact i64 %48, 3
  %50 = add nuw nsw i64 %49, 1
  %51 = and i64 %50, 1
  %52 = icmp eq i64 %48, 0
  br i1 %52, label %86, label %53

53:                                               ; preds = %45
  %54 = and i64 %50, 4611686018427387902
  br label %55

55:                                               ; preds = %55, %53
  %56 = phi i64 [ 0, %53 ], [ %83, %55 ]
  %57 = phi i64 [ %54, %53 ], [ %84, %55 ]
  %58 = add i64 %56, %34
  %59 = add nsw i64 %58, 1
  %60 = getelementptr inbounds i32, i32* %9, i64 %59
  %61 = bitcast i32* %60 to <4 x i32>*
  %62 = load <4 x i32>, <4 x i32>* %61, align 4, !tbaa !5
  %63 = getelementptr inbounds i32, i32* %60, i64 4
  %64 = bitcast i32* %63 to <4 x i32>*
  %65 = load <4 x i32>, <4 x i32>* %64, align 4, !tbaa !5
  %66 = getelementptr inbounds i32, i32* %9, i64 %58
  %67 = bitcast i32* %66 to <4 x i32>*
  store <4 x i32> %62, <4 x i32>* %67, align 4, !tbaa !5
  %68 = getelementptr inbounds i32, i32* %66, i64 4
  %69 = bitcast i32* %68 to <4 x i32>*
  store <4 x i32> %65, <4 x i32>* %69, align 4, !tbaa !5
  %70 = or i64 %56, 8
  %71 = add i64 %70, %34
  %72 = add nsw i64 %71, 1
  %73 = getelementptr inbounds i32, i32* %9, i64 %72
  %74 = bitcast i32* %73 to <4 x i32>*
  %75 = load <4 x i32>, <4 x i32>* %74, align 4, !tbaa !5
  %76 = getelementptr inbounds i32, i32* %73, i64 4
  %77 = bitcast i32* %76 to <4 x i32>*
  %78 = load <4 x i32>, <4 x i32>* %77, align 4, !tbaa !5
  %79 = getelementptr inbounds i32, i32* %9, i64 %71
  %80 = bitcast i32* %79 to <4 x i32>*
  store <4 x i32> %75, <4 x i32>* %80, align 4, !tbaa !5
  %81 = getelementptr inbounds i32, i32* %79, i64 4
  %82 = bitcast i32* %81 to <4 x i32>*
  store <4 x i32> %78, <4 x i32>* %82, align 4, !tbaa !5
  %83 = add nuw i64 %56, 16
  %84 = add i64 %57, -2
  %85 = icmp eq i64 %84, 0
  br i1 %85, label %86, label %55, !llvm.loop !11

86:                                               ; preds = %55, %45
  %87 = phi i64 [ 0, %45 ], [ %83, %55 ]
  %88 = icmp eq i64 %51, 0
  br i1 %88, label %102, label %89

89:                                               ; preds = %86
  %90 = add i64 %87, %34
  %91 = add nsw i64 %90, 1
  %92 = getelementptr inbounds i32, i32* %9, i64 %91
  %93 = bitcast i32* %92 to <4 x i32>*
  %94 = load <4 x i32>, <4 x i32>* %93, align 4, !tbaa !5
  %95 = getelementptr inbounds i32, i32* %92, i64 4
  %96 = bitcast i32* %95 to <4 x i32>*
  %97 = load <4 x i32>, <4 x i32>* %96, align 4, !tbaa !5
  %98 = getelementptr inbounds i32, i32* %9, i64 %90
  %99 = bitcast i32* %98 to <4 x i32>*
  store <4 x i32> %94, <4 x i32>* %99, align 4, !tbaa !5
  %100 = getelementptr inbounds i32, i32* %98, i64 4
  %101 = bitcast i32* %100 to <4 x i32>*
  store <4 x i32> %97, <4 x i32>* %101, align 4, !tbaa !5
  br label %102

102:                                              ; preds = %86, %89
  %103 = icmp eq i64 %43, %46
  br i1 %103, label %113, label %104

104:                                              ; preds = %41, %102
  %105 = phi i64 [ %34, %41 ], [ %47, %102 ]
  br label %106

106:                                              ; preds = %104, %106
  %107 = phi i64 [ %108, %106 ], [ %105, %104 ]
  %108 = add nsw i64 %107, 1
  %109 = getelementptr inbounds i32, i32* %9, i64 %108
  %110 = load i32, i32* %109, align 4, !tbaa !5
  %111 = getelementptr inbounds i32, i32* %9, i64 %107
  store i32 %110, i32* %111, align 4, !tbaa !5
  %112 = icmp eq i64 %108, %42
  br i1 %112, label %113, label %106, !llvm.loop !13

113:                                              ; preds = %106, %102, %38
  store i32 %39, i32* %1, align 4, !tbaa !5
  %114 = add nsw i32 %33, -1
  br label %115

115:                                              ; preds = %31, %113
  %116 = phi i32 [ %39, %113 ], [ %32, %31 ]
  %117 = phi i32 [ %114, %113 ], [ %33, %31 ]
  %118 = add nsw i32 %117, 1
  %119 = icmp slt i32 %118, %116
  br i1 %119, label %31, label %25, !llvm.loop !15

120:                                              ; preds = %25, %120
  %121 = phi i64 [ %125, %120 ], [ 0, %25 ]
  %122 = getelementptr inbounds i32, i32* %9, i64 %121
  %123 = load i32, i32* %122, align 4, !tbaa !5
  %124 = call i32 (i8*, ...) @printf(i8* nonnull dereferenceable(1) getelementptr inbounds ([4 x i8], [4 x i8]* @.str.1, i64 0, i64 0), i32 %123)
  %125 = add nuw nsw i64 %121, 1
  %126 = load i32, i32* %1, align 4, !tbaa !5
  %127 = add nsw i32 %126, -1
  %128 = sext i32 %127 to i64
  %129 = icmp slt i64 %125, %128
  br i1 %129, label %120, label %130, !llvm.loop !16

130:                                              ; preds = %120, %27
  %131 = phi i64 [ %30, %27 ], [ %128, %120 ]
  %132 = getelementptr inbounds i32, i32* %9, i64 %131
  %133 = load i32, i32* %132, align 4, !tbaa !5
  %134 = call i32 (i8*, ...) @printf(i8* nonnull dereferenceable(1) getelementptr inbounds ([4 x i8], [4 x i8]* @.str.2, i64 0, i64 0), i32 %133)
  %135 = load %struct._IO_FILE*, %struct._IO_FILE** @stdin, align 8, !tbaa !17
  %136 = call i32 @getc(%struct._IO_FILE* %135) #4
  %137 = load %struct._IO_FILE*, %struct._IO_FILE** @stdin, align 8, !tbaa !17
  %138 = call i32 @getc(%struct._IO_FILE* %137) #4
  %139 = load %struct._IO_FILE*, %struct._IO_FILE** @stdin, align 8, !tbaa !17
  %140 = call i32 @getc(%struct._IO_FILE* %139) #4
  call void @llvm.stackrestore(i8* %8)
  call void @llvm.lifetime.end.p0i8(i64 4, i8* nonnull %4) #4
  call void @llvm.lifetime.end.p0i8(i64 4, i8* nonnull %3) #4
  ret i32 0
}

; Function Attrs: argmemonly mustprogress nofree nosync nounwind willreturn
declare void @llvm.lifetime.start.p0i8(i64 immarg, i8* nocapture) #1

; Function Attrs: nofree nounwind
declare noundef i32 @__isoc99_scanf(i8* nocapture noundef readonly, ...) local_unnamed_addr #2

; Function Attrs: mustprogress nofree nosync nounwind willreturn
declare i8* @llvm.stacksave() #3

; Function Attrs: nofree nounwind
declare noundef i32 @printf(i8* nocapture noundef readonly, ...) local_unnamed_addr #2

; Function Attrs: mustprogress nofree nosync nounwind willreturn
declare void @llvm.stackrestore(i8*) #3

; Function Attrs: argmemonly mustprogress nofree nosync nounwind willreturn
declare void @llvm.lifetime.end.p0i8(i64 immarg, i8* nocapture) #1

; Function Attrs: nofree nounwind
declare noundef i32 @getc(%struct._IO_FILE* nocapture noundef) local_unnamed_addr #2


!llvm.module.flags = !{!0, !1, !2, !3}
!llvm.ident = !{!4}

!0 = !{i32 1, !"wchar_size", i32 4}
!1 = !{i32 7, !"PIC Level", i32 2}
!2 = !{i32 7, !"PIE Level", i32 2}
!3 = !{i32 7, !"uwtable", i32 1}
!4 = !{!"clang version 13.0.0"}
!5 = !{!6, !6, i64 0}
!6 = !{!"int", !7, i64 0}
!7 = !{!"omnipotent char", !8, i64 0}
!8 = !{!"Simple C/C++ TBAA"}
!9 = distinct !{!9, !10}
!10 = !{!"llvm.loop.mustprogress"}
!11 = distinct !{!11, !10, !12}
!12 = !{!"llvm.loop.isvectorized", i32 1}
!13 = distinct !{!13, !10, !14, !12}
!14 = !{!"llvm.loop.unroll.runtime.disable"}
!15 = distinct !{!15, !10}
!16 = distinct !{!16, !10}
!17 = !{!18, !18, i64 0}
!18 = !{!"any pointer", !7, i64 0}
